target datalayout = "e-m:e-p270:32:32-p271:32:32-p272:64:64-i64:64-i128:128-f80:128-n8:16:32:64-S128"
target triple = "x86_64-pc-linux-gnu"

@stderr = external global ptr, align 8
@.str = private unnamed_addr constant [30 x i8] c"Assertion failed: %s (%s:%d)\0A\00", align 1
@.str.1 = private unnamed_addr constant [6 x i8] c"pipe_\00", align 1
@.str.2 = private unnamed_addr constant [103 x i8] c"generated/home/dtcxzyw/WorkSpace/Projects/compilers/llvm-opt-benchmark/bench/libzmq/libzmq/src/pub.cpp\00", align 1

; Function Attrs: mustprogress uwtable
define void @_ZN3zmq5pub_t12xattach_pipeEPNS_6pipe_tEbb(ptr noundef nonnull align 8 dereferenceable(2360) %0, ptr noundef %1, i1 noundef zeroext %2, i1 noundef zeroext %3) unnamed_addr #0 align 2 {
  %5 = alloca ptr, align 8
  %6 = alloca ptr, align 8
  %7 = alloca i8, align 1
  %8 = alloca i8, align 1
  store ptr %0, ptr %5, align 8, !tbaa !3
  store ptr %1, ptr %6, align 8, !tbaa !64
  %9 = zext i1 %2 to i8
  store i8 %9, ptr %7, align 1, !tbaa !66
  %10 = zext i1 %3 to i8
  store i8 %10, ptr %8, align 1, !tbaa !66
  %11 = load ptr, ptr %5, align 8
  br label %12

12:                                               ; preds = %4
  %13 = load ptr, ptr %6, align 8, !tbaa !64
  %14 = icmp ne ptr %13, null
  %15 = xor i1 %14, true
  %16 = zext i1 %15 to i64
  %17 = call i64 @llvm.expect.i64(i64 %16, i64 0)
  %18 = icmp ne i64 %17, 0
  br i1 %18, label %19, label %24

19:                                               ; preds = %12
  %20 = load ptr, ptr @stderr, align 8, !tbaa !67
  %21 = call i32 (ptr, ptr, ...) @fprintf(ptr noundef %20, ptr noundef @.str, ptr noundef @.str.1, ptr noundef @.str.2, i32 noundef 23) #9
  %22 = load ptr, ptr @stderr, align 8, !tbaa !67
  %23 = call i32 @fflush(ptr noundef %22)
  call void @_ZN3zmq9zmq_abortEPKc(ptr noundef @.str.1)
  br label %24

24:                                               ; preds = %19, %12
  br label %25

25:                                               ; preds = %24
  %26 = load ptr, ptr %6, align 8, !tbaa !64
  call void @_ZN3zmq6pipe_t11set_nodelayEv(ptr noundef nonnull align 8 dereferenceable(328) %26)
  %27 = load ptr, ptr %6, align 8, !tbaa !64
  %28 = load i8, ptr %7, align 1, !tbaa !66, !range !69, !noundef !70
  %29 = trunc i8 %28 to i1
  %30 = load i8, ptr %8, align 1, !tbaa !66, !range !69, !noundef !70
  %31 = trunc i8 %30 to i1
  call void @_ZN3zmq6xpub_t12xattach_pipeEPNS_6pipe_tEbb(ptr noundef nonnull align 8 dereferenceable(2360) %11, ptr noundef %27, i1 noundef zeroext %29, i1 noundef zeroext %31)
  ret void
}