; Function Attrs: mustprogress uwtable
define void @_ZN3zmq5pub_t12xattach_pipeEPNS_6pipe_tEbb(ptr noundef nonnull align 8 dereferenceable(2360) %0, ptr noundef %1, i1 noundef zeroext %2, i1 noundef zeroext %3) unnamed_addr #0 align 2 {
  %.not = icmp eq ptr %1, null
  br i1 %.not, label %5, label %10, !prof !60

5:                                                ; preds = %4
  %6 = load ptr, ptr @stderr, align 8, !tbaa !61
  %7 = tail call i32 (ptr, ptr, ...) @fprintf(ptr noundef %6, ptr noundef nonnull @.str, ptr noundef nonnull @.str.1, ptr noundef nonnull @.str.2, i32 noundef 23) #13
  %8 = load ptr, ptr @stderr, align 8, !tbaa !61
  %9 = tail call i32 @fflush(ptr noundef %8)
  tail call void @_ZN3zmq9zmq_abortEPKc(ptr noundef nonnull @.str.1)
  br label %10

10:                                               ; preds = %4, %5
  tail call void @_ZN3zmq6pipe_t11set_nodelayEv(ptr noundef nonnull align 8 dereferenceable(328) %1)
  tail call void @_ZN3zmq6xpub_t12xattach_pipeEPNS_6pipe_tEbb(ptr noundef nonnull align 8 dereferenceable(2360) %0, ptr noundef nonnull %1, i1 noundef zeroext %2, i1 noundef zeroext %3)
  ret void
}